target datalayout = "e-m:e-p270:32:32-p271:32:32-p272:64:64-i64:64-i128:128-f80:128-n8:16:32:64-S128"
target triple = "x86_64-pc-linux-gnu"

%struct.LodePNGDecompressSettings = type { i32, i32, i64, ptr, ptr, ptr }
%struct.LodePNGInfo = type { i32, i32, i32, %struct.LodePNGColorMode, i32, i32, i32, i32, i64, ptr, ptr, i64, ptr, ptr, ptr, ptr, i32, ptr, i32, i32, %struct.LodePNGTime, i32, i32, i32, i32, i32, i32, i32, i32, i32, i32, i32, i32, i32, i32, i32, i32, i32, i32, ptr, ptr, i32, i32, i32, i32, i32, i32, i32, i32, i32, i32, i32, i32, i32, i32, i32, i32, i32, i32, i32, i32, i32, i32, i32, i32, i32, [3 x ptr], [3 x i64] }
%struct.LodePNGColorMode = type { i32, i32, ptr, i64, i32, i32, i32, i32 }
%struct.LodePNGTime = type { i32, i32, i32, i32, i32, i32 }
%struct.LodePNGState = type { %struct.LodePNGDecoderSettings, %struct.LodePNGEncoderSettings, %struct.LodePNGColorMode, %struct.LodePNGInfo, i32 }
%struct.LodePNGDecoderSettings = type { %struct.LodePNGDecompressSettings, i32, i32, i32, i32, i32, i32, i64, i64 }
%struct.LodePNGEncoderSettings = type { %struct.LodePNGCompressSettings, i32, i32, i32, ptr, i32, i32, i32 }
%struct.LodePNGCompressSettings = type { i32, i32, i32, i32, i32, i32, ptr, ptr, ptr }
%"struct.lodepng::LodePNGICCCurve" = type { i32, ptr, i64, float, float, float, float, float, float, float }
%"struct.lodepng::LodePNGICC" = type { i32, i32, i32, i32, [3 x float], i32, [9 x float], i32, [3 x float], i32, [3 x float], [3 x float], [3 x float], i32, [3 x %"struct.lodepng::LodePNGICCCurve"] }

; Function Attrs: mustprogress nounwind uwtable
define internal void @_ZN7lodepngL12lodepng_freeEPv(ptr noundef %0) #3 {
  %2 = alloca ptr, align 8
  store ptr %0, ptr %2, align 8, !tbaa !81
  %3 = load ptr, ptr %2, align 8, !tbaa !81
  call void @free(ptr noundef %3) #19
  ret void
}

; Function Attrs: mustprogress uwtable
define void @_ZN7lodepng25lodepng_icc_curve_cleanupEPNS_15LodePNGICCCurveE(ptr noundef %0) #0 {
  %2 = alloca ptr, align 8
  store ptr %0, ptr %2, align 8, !tbaa !81
  %3 = load ptr, ptr %2, align 8, !tbaa !81
  %4 = getelementptr inbounds nuw %"struct.lodepng::LodePNGICCCurve", ptr %3, i32 0, i32 1
  %5 = load ptr, ptr %4, align 8, !tbaa !82
  call void @_ZN7lodepngL12lodepng_freeEPv(ptr noundef %5)
  ret void
}

; Function Attrs: mustprogress nounwind uwtable
define void @_ZN7lodepng22lodepng_icc_curve_initEPNS_15LodePNGICCCurveE(ptr noundef %0) #3 {
  %2 = alloca ptr, align 8
  store ptr %0, ptr %2, align 8, !tbaa !81
  %3 = load ptr, ptr %2, align 8, !tbaa !81
  %4 = getelementptr inbounds nuw %"struct.lodepng::LodePNGICCCurve", ptr %3, i32 0, i32 1
  store ptr null, ptr %4, align 8, !tbaa !82
  %5 = load ptr, ptr %2, align 8, !tbaa !81
  %6 = getelementptr inbounds nuw %"struct.lodepng::LodePNGICCCurve", ptr %5, i32 0, i32 2
  store i64 0, ptr %6, align 8, !tbaa !86
  ret void
}

; Function Attrs: mustprogress uwtable
define void @_ZN7lodepng19lodepng_icc_cleanupEPNS_10LodePNGICCE(ptr noundef %0) #0 {
  %2 = alloca ptr, align 8
  store ptr %0, ptr %2, align 8, !tbaa !81
  %3 = load ptr, ptr %2, align 8, !tbaa !81
  %4 = getelementptr inbounds nuw %"struct.lodepng::LodePNGICC", ptr %3, i32 0, i32 14
  %5 = getelementptr inbounds [3 x %"struct.lodepng::LodePNGICCCurve"], ptr %4, i64 0, i64 0
  call void @_ZN7lodepng25lodepng_icc_curve_cleanupEPNS_15LodePNGICCCurveE(ptr noundef %5)
  %6 = load ptr, ptr %2, align 8, !tbaa !81
  %7 = getelementptr inbounds nuw %"struct.lodepng::LodePNGICC", ptr %6, i32 0, i32 14
  %8 = getelementptr inbounds [3 x %"struct.lodepng::LodePNGICCCurve"], ptr %7, i64 0, i64 1
  call void @_ZN7lodepng25lodepng_icc_curve_cleanupEPNS_15LodePNGICCCurveE(ptr noundef %8)
  %9 = load ptr, ptr %2, align 8, !tbaa !81
  %10 = getelementptr inbounds nuw %"struct.lodepng::LodePNGICC", ptr %9, i32 0, i32 14
  %11 = getelementptr inbounds [3 x %"struct.lodepng::LodePNGICCCurve"], ptr %10, i64 0, i64 2
  call void @_ZN7lodepng25lodepng_icc_curve_cleanupEPNS_15LodePNGICCCurveE(ptr noundef %11)
  ret void
}

; Function Attrs: mustprogress nounwind uwtable
define internal noundef i32 @_ZN7lodepngL11validateICCEPKNS_10LodePNGICCE(ptr noundef %0) #3 {
  %2 = alloca i32, align 4
  %3 = alloca ptr, align 8
  store ptr %0, ptr %3, align 8, !tbaa !81
  %4 = load ptr, ptr %3, align 8, !tbaa !81
  %5 = getelementptr inbounds nuw %"struct.lodepng::LodePNGICC", ptr %4, i32 0, i32 0
  %6 = load i32, ptr %5, align 8, !tbaa !98
  %7 = icmp eq i32 %6, 0
  br i1 %7, label %8, label %9

8:                                                ; preds = %1
  store i32 0, ptr %2, align 4
  br label %34

9:                                                ; preds = %1
  %10 = load ptr, ptr %3, align 8, !tbaa !81
  %11 = getelementptr inbounds nuw %"struct.lodepng::LodePNGICC", ptr %10, i32 0, i32 0
  %12 = load i32, ptr %11, align 8, !tbaa !98
  %13 = icmp eq i32 %12, 2
  br i1 %13, label %14, label %21

14:                                               ; preds = %9
  %15 = load ptr, ptr %3, align 8, !tbaa !81
  %16 = getelementptr inbounds nuw %"struct.lodepng::LodePNGICC", ptr %15, i32 0, i32 9
  %17 = load i32, ptr %16, align 4, !tbaa !103
  %18 = icmp ne i32 %17, 0
  br i1 %18, label %20, label %19

19:                                               ; preds = %14
  store i32 0, ptr %2, align 4
  br label %34

20:                                               ; preds = %14
  br label %21

21:                                               ; preds = %20, %9
  %22 = load ptr, ptr %3, align 8, !tbaa !81
  %23 = getelementptr inbounds nuw %"struct.lodepng::LodePNGICC", ptr %22, i32 0, i32 7
  %24 = load i32, ptr %23, align 4, !tbaa !104
  %25 = icmp ne i32 %24, 0
  br i1 %25, label %27, label %26

26:                                               ; preds = %21
  store i32 0, ptr %2, align 4
  br label %34

27:                                               ; preds = %21
  %28 = load ptr, ptr %3, align 8, !tbaa !81
  %29 = getelementptr inbounds nuw %"struct.lodepng::LodePNGICC", ptr %28, i32 0, i32 13
  %30 = load i32, ptr %29, align 4, !tbaa !105
  %31 = icmp ne i32 %30, 0
  br i1 %31, label %33, label %32

32:                                               ; preds = %27
  store i32 0, ptr %2, align 4
  br label %34

33:                                               ; preds = %27
  store i32 1, ptr %2, align 4
  br label %34

34:                                               ; preds = %33, %32, %26, %19, %8
  %35 = load i32, ptr %2, align 4
  ret i32 %35
}

; Function Attrs: mustprogress nounwind uwtable
define void @_ZN7lodepng16lodepng_icc_initEPNS_10LodePNGICCE(ptr noundef %0) #3 {
  %2 = alloca ptr, align 8
  store ptr %0, ptr %2, align 8, !tbaa !81
  %3 = load ptr, ptr %2, align 8, !tbaa !81
  %4 = getelementptr inbounds nuw %"struct.lodepng::LodePNGICC", ptr %3, i32 0, i32 14
  %5 = getelementptr inbounds [3 x %"struct.lodepng::LodePNGICCCurve"], ptr %4, i64 0, i64 0
  call void @_ZN7lodepng22lodepng_icc_curve_initEPNS_15LodePNGICCCurveE(ptr noundef %5)
  %6 = load ptr, ptr %2, align 8, !tbaa !81
  %7 = getelementptr inbounds nuw %"struct.lodepng::LodePNGICC", ptr %6, i32 0, i32 14
  %8 = getelementptr inbounds [3 x %"struct.lodepng::LodePNGICCCurve"], ptr %7, i64 0, i64 1
  call void @_ZN7lodepng22lodepng_icc_curve_initEPNS_15LodePNGICCCurveE(ptr noundef %8)
  %9 = load ptr, ptr %2, align 8, !tbaa !81
  %10 = getelementptr inbounds nuw %"struct.lodepng::LodePNGICC", ptr %9, i32 0, i32 14
  %11 = getelementptr inbounds [3 x %"struct.lodepng::LodePNGICCCurve"], ptr %10, i64 0, i64 2
  call void @_ZN7lodepng22lodepng_icc_curve_initEPNS_15LodePNGICCCurveE(ptr noundef %11)
  ret void
}

; Function Attrs: mustprogress uwtable
define noundef i32 @_ZN7lodepng19convertFromXYZFloatEPfPKfjjPK12LodePNGStateS2_j(ptr noundef %0, ptr noundef %1, i32 noundef %2, i32 noundef %3, ptr noundef %4, ptr noundef %5, i32 noundef %6) #0 {
  %8 = alloca ptr, align 8
  %9 = alloca ptr, align 8
  %10 = alloca i32, align 4
  %11 = alloca i32, align 4
  %12 = alloca ptr, align 8
  %13 = alloca ptr, align 8
  %14 = alloca i32, align 4
  %15 = alloca i32, align 4
  %16 = alloca ptr, align 8
  %17 = alloca i32, align 4
  %18 = alloca %"struct.lodepng::LodePNGICC", align 8
  store ptr %0, ptr %8, align 8, !tbaa !87
  store ptr %1, ptr %9, align 8, !tbaa !87
  store i32 %2, ptr %10, align 4, !tbaa !9
  store i32 %3, ptr %11, align 4, !tbaa !9
  store ptr %4, ptr %12, align 8, !tbaa !88
  store ptr %5, ptr %13, align 8, !tbaa !87
  store i32 %6, ptr %14, align 4, !tbaa !9
  call void @llvm.lifetime.start.p0(i64 4, ptr %15) #19
  store i32 0, ptr %15, align 4, !tbaa !9
  call void @llvm.lifetime.start.p0(i64 8, ptr %16) #19
  %19 = load ptr, ptr %12, align 8, !tbaa !88
  %20 = getelementptr inbounds nuw %struct.LodePNGState, ptr %19, i32 0, i32 3
  store ptr %20, ptr %16, align 8, !tbaa !92
  call void @llvm.lifetime.start.p0(i64 4, ptr %17) #19
  store i32 0, ptr %17, align 4, !tbaa !9
  call void @llvm.lifetime.start.p0(i64 296, ptr %18) #19
  call void @_ZN7lodepng16lodepng_icc_initEPNS_10LodePNGICCE(ptr noundef %18)
  %21 = load ptr, ptr %16, align 8, !tbaa !92
  %22 = getelementptr inbounds nuw %struct.LodePNGInfo, ptr %21, i32 0, i32 38
  %23 = load i32, ptr %22, align 4, !tbaa !95
  %24 = icmp ne i32 %23, 0
  br i1 %24, label %25, label %39

25:                                               ; preds = %7
  %26 = load ptr, ptr %16, align 8, !tbaa !92
  %27 = getelementptr inbounds nuw %struct.LodePNGInfo, ptr %26, i32 0, i32 40
  %28 = load ptr, ptr %27, align 8, !tbaa !96
  %29 = load ptr, ptr %16, align 8, !tbaa !92
  %30 = getelementptr inbounds nuw %struct.LodePNGInfo, ptr %29, i32 0, i32 41
  %31 = load i32, ptr %30, align 8, !tbaa !97
  %32 = zext i32 %31 to i64
  %33 = call noundef i32 @_ZN7lodepngL8parseICCEPNS_10LodePNGICCEPKhm(ptr noundef %18, ptr noundef %28, i64 noundef %32)
  store i32 %33, ptr %15, align 4, !tbaa !9
  %34 = load i32, ptr %15, align 4, !tbaa !9
  %35 = icmp ne i32 %34, 0
  br i1 %35, label %36, label %37

36:                                               ; preds = %25
  br label %63

37:                                               ; preds = %25
  %38 = call noundef i32 @_ZN7lodepngL11validateICCEPKNS_10LodePNGICCE(ptr noundef %18)
  store i32 %38, ptr %17, align 4, !tbaa !9
  br label %39

39:                                               ; preds = %37, %7
  %40 = load ptr, ptr %8, align 8, !tbaa !87
  %41 = load ptr, ptr %9, align 8, !tbaa !87
  %42 = load i32, ptr %10, align 4, !tbaa !9
  %43 = load i32, ptr %11, align 4, !tbaa !9
  %44 = load ptr, ptr %16, align 8, !tbaa !92
  %45 = load i32, ptr %17, align 4, !tbaa !9
  %46 = load ptr, ptr %13, align 8, !tbaa !87
  %47 = load i32, ptr %14, align 4, !tbaa !9
  %48 = call noundef i32 @_ZN7lodepngL19convertFromXYZ_chrmEPfPKfjjPK11LodePNGInfojPKNS_10LodePNGICCES2_j(ptr noundef %40, ptr noundef %41, i32 noundef %42, i32 noundef %43, ptr noundef %44, i32 noundef %45, ptr noundef %18, ptr noundef %46, i32 noundef %47)
  store i32 %48, ptr %15, align 4, !tbaa !9
  %49 = load i32, ptr %15, align 4, !tbaa !9
  %50 = icmp ne i32 %49, 0
  br i1 %50, label %51, label %52

51:                                               ; preds = %39
  br label %63

52:                                               ; preds = %39
  %53 = load ptr, ptr %8, align 8, !tbaa !87
  %54 = load i32, ptr %10, align 4, !tbaa !9
  %55 = load i32, ptr %11, align 4, !tbaa !9
  %56 = load ptr, ptr %16, align 8, !tbaa !92
  %57 = load i32, ptr %17, align 4, !tbaa !9
  %58 = call noundef i32 @_ZN7lodepngL20convertFromXYZ_gammaEPfjjPK11LodePNGInfojPKNS_10LodePNGICCE(ptr noundef %53, i32 noundef %54, i32 noundef %55, ptr noundef %56, i32 noundef %57, ptr noundef %18)
  store i32 %58, ptr %15, align 4, !tbaa !9
  %59 = load i32, ptr %15, align 4, !tbaa !9
  %60 = icmp ne i32 %59, 0
  br i1 %60, label %61, label %62

61:                                               ; preds = %52
  br label %63

62:                                               ; preds = %52
  br label %63

63:                                               ; preds = %62, %61, %51, %36
  call void @_ZN7lodepng19lodepng_icc_cleanupEPNS_10LodePNGICCE(ptr noundef %18)
  %64 = load i32, ptr %15, align 4, !tbaa !9
  call void @llvm.lifetime.end.p0(i64 296, ptr %18) #19
  call void @llvm.lifetime.end.p0(i64 4, ptr %17) #19
  call void @llvm.lifetime.end.p0(i64 8, ptr %16) #19
  call void @llvm.lifetime.end.p0(i64 4, ptr %15) #19
  ret i32 %64
}