; Function Attrs: mustprogress nounwind uwtable
define noundef range(i32 0, 93) i32 @_ZN7lodepng19convertFromXYZFloatEPfPKfjjPK12LodePNGStateS2_j(ptr noundef captures(none) %0, ptr noundef readonly captures(none) %1, i32 noundef %2, i32 noundef %3, ptr noundef readonly captures(none) %4, ptr noundef readonly captures(none) %5, i32 noundef %6) local_unnamed_addr #5 {
  %8 = alloca %"struct.lodepng::LodePNGICC", align 8
  %9 = getelementptr inbounds nuw i8, ptr %4, i64 208
  call void @llvm.lifetime.start.p0(i64 296, ptr nonnull %8) #27
  %10 = getelementptr inbounds nuw i8, ptr %8, i64 136
  call void @llvm.memset.p0.i64(ptr noundef nonnull align 8 dereferenceable(16) %10, i8 0, i64 16, i1 false)
  %11 = getelementptr inbounds nuw i8, ptr %8, i64 192
  call void @llvm.memset.p0.i64(ptr noundef nonnull align 8 dereferenceable(16) %11, i8 0, i64 16, i1 false)
  %12 = getelementptr inbounds nuw i8, ptr %8, i64 248
  call void @llvm.memset.p0.i64(ptr noundef nonnull align 8 dereferenceable(16) %12, i8 0, i64 16, i1 false)
  %13 = getelementptr inbounds nuw i8, ptr %4, i64 460
  %14 = load i32, ptr %13, align 4, !tbaa !71
  %.not = icmp eq i32 %14, 0
  br i1 %.not, label %_ZN7lodepngL11validateICCEPKNS_10LodePNGICCE.exit, label %15

15:                                               ; preds = %7
  %16 = getelementptr inbounds nuw i8, ptr %4, i64 472
  %17 = load ptr, ptr %16, align 8, !tbaa !72
  %18 = getelementptr inbounds nuw i8, ptr %4, i64 480
  %19 = load i32, ptr %18, align 8, !tbaa !73
  %20 = zext i32 %19 to i64
  %21 = call fastcc noundef i32 @_ZN7lodepngL8parseICCEPNS_10LodePNGICCEPKhm(ptr noundef %8, ptr noundef %17, i64 noundef %20)
  %.not22 = icmp eq i32 %21, 0
  br i1 %.not22, label %22, label %36

22:                                               ; preds = %15
  %23 = load i32, ptr %8, align 8, !tbaa !74
  switch i32 %23, label %29 [
    i32 0, label %_ZN7lodepngL11validateICCEPKNS_10LodePNGICCE.exit
    i32 2, label %24
  ]

24:                                               ; preds = %22
  %25 = getelementptr inbounds nuw i8, ptr %8, i64 84
  %26 = load i32, ptr %25, align 4, !tbaa !76
  %.not.i = icmp eq i32 %26, 0
  %27 = getelementptr inbounds nuw i8, ptr %8, i64 68
  %28 = load i32, ptr %27, align 4
  %.not6.i = icmp eq i32 %28, 0
  %or.cond = select i1 %.not.i, i1 true, i1 %.not6.i
  br i1 %or.cond, label %_ZN7lodepngL11validateICCEPKNS_10LodePNGICCE.exit, label %30

29:                                               ; preds = %22
  %.old = getelementptr inbounds nuw i8, ptr %8, i64 68
  %.old24 = load i32, ptr %.old, align 4, !tbaa !77
  %.not6.i.old = icmp eq i32 %.old24, 0
  br i1 %.not6.i.old, label %_ZN7lodepngL11validateICCEPKNS_10LodePNGICCE.exit, label %30

30:                                               ; preds = %24, %29
  %31 = getelementptr inbounds nuw i8, ptr %8, i64 124
  %32 = load i32, ptr %31, align 4, !tbaa !78
  %.not7.i = icmp ne i32 %32, 0
  %..i = zext i1 %.not7.i to i32
  br label %_ZN7lodepngL11validateICCEPKNS_10LodePNGICCE.exit

_ZN7lodepngL11validateICCEPKNS_10LodePNGICCE.exit: ; preds = %30, %29, %24, %22, %7
  %.0 = phi i32 [ 0, %7 ], [ %23, %22 ], [ 0, %24 ], [ 0, %29 ], [ %..i, %30 ]
  %33 = call fastcc noundef i32 @_ZN7lodepngL19convertFromXYZ_chrmEPfPKfjjPK11LodePNGInfojPKNS_10LodePNGICCES2_j(ptr noundef %0, ptr noundef %1, i32 noundef %2, i32 noundef %3, ptr noundef nonnull %9, i32 noundef %.0, ptr noundef %8, ptr noundef %5, i32 noundef %6)
  %.not23 = icmp eq i32 %33, 0
  br i1 %.not23, label %34, label %36

34:                                               ; preds = %_ZN7lodepngL11validateICCEPKNS_10LodePNGICCE.exit
  %35 = call fastcc noundef i32 @_ZN7lodepngL20convertFromXYZ_gammaEPfjjPK11LodePNGInfojPKNS_10LodePNGICCE(ptr noundef %0, i32 noundef %2, i32 noundef %3, ptr noundef nonnull %9, i32 noundef %.0, ptr noundef %8)
  br label %36

36:                                               ; preds = %34, %_ZN7lodepngL11validateICCEPKNS_10LodePNGICCE.exit, %15
  %.019 = phi i32 [ 1, %15 ], [ 1, %_ZN7lodepngL11validateICCEPKNS_10LodePNGICCE.exit ], [ %35, %34 ]
  %37 = load ptr, ptr %10, align 8, !tbaa !66
  tail call void @free(ptr noundef %37) #27
  %38 = load ptr, ptr %11, align 8, !tbaa !66
  tail call void @free(ptr noundef %38) #27
  %39 = load ptr, ptr %12, align 8, !tbaa !66
  tail call void @free(ptr noundef %39) #27
  call void @llvm.lifetime.end.p0(i64 296, ptr nonnull %8) #27
  ret i32 %.019
}